target datalayout = "e-m:e-p270:32:32-p271:32:32-p272:64:64-i64:64-i128:128-f80:128-n8:16:32:64-S128"
target triple = "x86_64-pc-linux-gnu"

%struct.sh_st = type { ptr, i64, ptr, i64, ptr, i64, i64, ptr, ptr, i64 }

@sh = internal global %struct.sh_st zeroinitializer, align 8
@.str.1 = private unnamed_addr constant [28 x i8] c"../openssl/crypto/mem_sec.c\00", align 1
@.str.7 = private unnamed_addr constant [55 x i8] c"assertion failed: list >= 0 && list < sh.freelist_size\00", align 1
@.str.8 = private unnamed_addr constant [74 x i8] c"assertion failed: ((ptr - sh.arena) & ((sh.arena_size >> list) - 1)) == 0\00", align 1
@.str.9 = private unnamed_addr constant [52 x i8] c"assertion failed: bit > 0 && bit < sh.bittable_size\00", align 1
@.str.21 = private unnamed_addr constant [38 x i8] c"assertion failed: TESTBIT(table, bit)\00", align 1

; Function Attrs: nounwind uwtable
define internal void @sh_clearbit(ptr noundef %0, i32 noundef %1, ptr noundef %2) #0 {
  %4 = alloca ptr, align 8
  %5 = alloca i32, align 4
  %6 = alloca ptr, align 8
  %7 = alloca i64, align 8
  store ptr %0, ptr %4, align 8, !tbaa !26
  store i32 %1, ptr %5, align 4, !tbaa !7
  store ptr %2, ptr %6, align 8, !tbaa !26
  call void @llvm.lifetime.start.p0(i64 8, ptr %7) #7
  %8 = load i32, ptr %5, align 4, !tbaa !7
  %9 = icmp sge i32 %8, 0
  br i1 %9, label %10, label %16

10:                                               ; preds = %3
  %11 = load i32, ptr %5, align 4, !tbaa !7
  %12 = sext i32 %11 to i64
  %13 = load i64, ptr getelementptr inbounds nuw (%struct.sh_st, ptr @sh, i32 0, i32 5), align 8, !tbaa !17
  %14 = icmp slt i64 %12, %13
  br i1 %14, label %15, label %16

15:                                               ; preds = %10
  br label %18

16:                                               ; preds = %10, %3
  call void @OPENSSL_die(ptr noundef @.str.7, ptr noundef @.str.1, i32 noundef 374) #8
  unreachable

17:                                               ; No predecessors!
  br label %18

18:                                               ; preds = %17, %15
  %19 = load ptr, ptr %4, align 8, !tbaa !26
  %20 = load ptr, ptr getelementptr inbounds nuw (%struct.sh_st, ptr @sh, i32 0, i32 2), align 8, !tbaa !25
  %21 = ptrtoint ptr %19 to i64
  %22 = ptrtoint ptr %20 to i64
  %23 = sub i64 %21, %22
  %24 = load i64, ptr getelementptr inbounds nuw (%struct.sh_st, ptr @sh, i32 0, i32 3), align 8, !tbaa !11
  %25 = load i32, ptr %5, align 4, !tbaa !7
  %26 = zext i32 %25 to i64
  %27 = lshr i64 %24, %26
  %28 = sub i64 %27, 1
  %29 = and i64 %23, %28
  %30 = icmp eq i64 %29, 0
  br i1 %30, label %31, label %32

31:                                               ; preds = %18
  br label %34

32:                                               ; preds = %18
  call void @OPENSSL_die(ptr noundef @.str.8, ptr noundef @.str.1, i32 noundef 375) #8
  unreachable

33:                                               ; No predecessors!
  br label %34

34:                                               ; preds = %33, %31
  %35 = load i32, ptr %5, align 4, !tbaa !7
  %36 = zext i32 %35 to i64
  %37 = shl i64 1, %36
  %38 = load ptr, ptr %4, align 8, !tbaa !26
  %39 = load ptr, ptr getelementptr inbounds nuw (%struct.sh_st, ptr @sh, i32 0, i32 2), align 8, !tbaa !25
  %40 = ptrtoint ptr %38 to i64
  %41 = ptrtoint ptr %39 to i64
  %42 = sub i64 %40, %41
  %43 = load i64, ptr getelementptr inbounds nuw (%struct.sh_st, ptr @sh, i32 0, i32 3), align 8, !tbaa !11
  %44 = load i32, ptr %5, align 4, !tbaa !7
  %45 = zext i32 %44 to i64
  %46 = lshr i64 %43, %45
  %47 = udiv i64 %42, %46
  %48 = add i64 %37, %47
  store i64 %48, ptr %7, align 8, !tbaa !3
  %49 = load i64, ptr %7, align 8, !tbaa !3
  %50 = icmp ugt i64 %49, 0
  br i1 %50, label %51, label %56

51:                                               ; preds = %34
  %52 = load i64, ptr %7, align 8, !tbaa !3
  %53 = load i64, ptr getelementptr inbounds nuw (%struct.sh_st, ptr @sh, i32 0, i32 9), align 8, !tbaa !16
  %54 = icmp ult i64 %52, %53
  br i1 %54, label %55, label %56

55:                                               ; preds = %51
  br label %58

56:                                               ; preds = %51, %34
  call void @OPENSSL_die(ptr noundef @.str.9, ptr noundef @.str.1, i32 noundef 377) #8
  unreachable

57:                                               ; No predecessors!
  br label %58

58:                                               ; preds = %57, %55
  %59 = load ptr, ptr %6, align 8, !tbaa !26
  %60 = load i64, ptr %7, align 8, !tbaa !3
  %61 = lshr i64 %60, 3
  %62 = getelementptr inbounds nuw i8, ptr %59, i64 %61
  %63 = load i8, ptr %62, align 1, !tbaa !31
  %64 = zext i8 %63 to i64
  %65 = load i64, ptr %7, align 8, !tbaa !3
  %66 = and i64 %65, 7
  %67 = shl i64 1, %66
  %68 = and i64 %64, %67
  %69 = icmp ne i64 %68, 0
  br i1 %69, label %70, label %71

70:                                               ; preds = %58
  br label %73

71:                                               ; preds = %58
  call void @OPENSSL_die(ptr noundef @.str.21, ptr noundef @.str.1, i32 noundef 378) #8
  unreachable

72:                                               ; No predecessors!
  br label %73

73:                                               ; preds = %72, %70
  %74 = load i64, ptr %7, align 8, !tbaa !3
  %75 = and i64 %74, 7
  %76 = shl i64 1, %75
  %77 = xor i64 %76, -1
  %78 = and i64 255, %77
  %79 = load ptr, ptr %6, align 8, !tbaa !26
  %80 = load i64, ptr %7, align 8, !tbaa !3
  %81 = lshr i64 %80, 3
  %82 = getelementptr inbounds nuw i8, ptr %79, i64 %81
  %83 = load i8, ptr %82, align 1, !tbaa !31
  %84 = zext i8 %83 to i64
  %85 = and i64 %84, %78
  %86 = trunc i64 %85 to i8
  store i8 %86, ptr %82, align 1, !tbaa !31
  call void @llvm.lifetime.end.p0(i64 8, ptr %7) #7
  ret void
}